target datalayout = "e-m:e-p270:32:32-p271:32:32-p272:64:64-i64:64-i128:128-f80:128-n8:16:32:64-S128"
target triple = "x86_64-pc-linux-gnu"

@Gains = internal global [222 x i32] zeroinitializer, align 16

; Function Attrs: nounwind uwtable
define i32 @Rwr_ScoresCompare(ptr noundef %0, ptr noundef %1) #0 {
  %3 = alloca i32, align 4
  %4 = alloca ptr, align 8
  %5 = alloca ptr, align 8
  store ptr %0, ptr %4, align 8, !tbaa !84
  store ptr %1, ptr %5, align 8, !tbaa !84
  %6 = load ptr, ptr %4, align 8, !tbaa !84
  %7 = load i32, ptr %6, align 4, !tbaa !12
  %8 = sext i32 %7 to i64
  %9 = getelementptr inbounds [222 x i32], ptr @Gains, i64 0, i64 %8
  %10 = load i32, ptr %9, align 4, !tbaa !12
  %11 = load ptr, ptr %5, align 8, !tbaa !84
  %12 = load i32, ptr %11, align 4, !tbaa !12
  %13 = sext i32 %12 to i64
  %14 = getelementptr inbounds [222 x i32], ptr @Gains, i64 0, i64 %13
  %15 = load i32, ptr %14, align 4, !tbaa !12
  %16 = icmp sgt i32 %10, %15
  br i1 %16, label %17, label %18

17:                                               ; preds = %2
  store i32 -1, ptr %3, align 4
  br label %32

18:                                               ; preds = %2
  %19 = load ptr, ptr %4, align 8, !tbaa !84
  %20 = load i32, ptr %19, align 4, !tbaa !12
  %21 = sext i32 %20 to i64
  %22 = getelementptr inbounds [222 x i32], ptr @Gains, i64 0, i64 %21
  %23 = load i32, ptr %22, align 4, !tbaa !12
  %24 = load ptr, ptr %5, align 8, !tbaa !84
  %25 = load i32, ptr %24, align 4, !tbaa !12
  %26 = sext i32 %25 to i64
  %27 = getelementptr inbounds [222 x i32], ptr @Gains, i64 0, i64 %26
  %28 = load i32, ptr %27, align 4, !tbaa !12
  %29 = icmp slt i32 %23, %28
  br i1 %29, label %30, label %31

30:                                               ; preds = %18
  store i32 1, ptr %3, align 4
  br label %32

31:                                               ; preds = %18
  store i32 0, ptr %3, align 4
  br label %32

32:                                               ; preds = %31, %30, %17
  %33 = load i32, ptr %3, align 4
  ret i32 %33
}