; Function Attrs: mustprogress nofree norecurse nosync nounwind willreturn memory(read, inaccessiblemem: none) uwtable
define range(i32 -1, 2) i32 @Rwr_ScoresCompare(ptr noundef readonly captures(none) %0, ptr noundef readonly captures(none) %1) #6 {
  %3 = load i32, ptr %0, align 4, !tbaa !25
  %4 = sext i32 %3 to i64
  %5 = getelementptr inbounds [222 x i32], ptr @Gains, i64 0, i64 %4
  %6 = load i32, ptr %5, align 4, !tbaa !25
  %7 = load i32, ptr %1, align 4, !tbaa !25
  %8 = sext i32 %7 to i64
  %9 = getelementptr inbounds [222 x i32], ptr @Gains, i64 0, i64 %8
  %10 = load i32, ptr %9, align 4, !tbaa !25
  %.0 = tail call i32 @llvm.scmp.i32.i32(i32 %10, i32 %6)
  ret i32 %.0
}